
EDID (hex):
00ffffffffffff0030e4016300000000
00120103802213780ae8959b56489626
1a505400000001010101010101010101
0101010101013e1c56a0500016303020
350058c2100000190000000000000000
00000000000000000000000000fe004c
4720446973706c61790a2020000000fc
004c503135365748312d544c4131003f

Extracted contents:
header:          00 ff ff ff ff ff ff 00
serial number:   30 e4 01 63 00 00 00 00 00 12
version:         01 03
basic params:    80 22 13 78 0a
chroma info:     e8 95 9b 56 48 96 26 1a 50 54
established:     00 00 00
standard:        01 01 01 01 01 01 01 01 01 01 01 01 01 01 01 01
descriptor 1:    3e 1c 56 a0 50 00 16 30 30 20 35 00 58 c2 10 00 00 19
descriptor 2:    00 00 00 00 00 00 00 00 00 00 00 00 00 00 00 00 00 00
descriptor 3:    00 00 00 fe 00 4c 47 20 44 69 73 70 6c 61 79 0a 20 20
descriptor 4:    00 00 00 fc 00 4c 50 31 35 36 57 48 31 2d 54 4c 41 31
extensions:      00
checksum:        3f

Manufacturer: LGD Model 6301 Serial Number --
Made week 0 of 2008
EDID version: 1.3
Digital display
Maximum image size: 34 cm x 19 cm
Gamma: 2.20
Supported color formats: RGB 4:4:4, YCrCb 4:2:2
First detailed timing is preferred timing
Established timings supported:
Standard timings supported:
Detailed mode: Clock 72.300 MHz, 344 mm x 194 mm
               1366 1414 1446 1526 hborder 0
                768  771  776  790 vborder 0
               -hsync -vsync 
Manufacturer-specified data, tag 0
ASCII string: LG
Checksum: 0x3f (valid)
EDID block does NOT conform to EDID 1.3!
	Name descriptor not terminated with a newline
	Missing monitor ranges
	Detailed block string not properly terminated
