
EDID (hex):
00ffffffffffff004c2d1b0738383930
2214010380301b782a78f1a655489b26
125054bfef80714f8100814081809500
950fa940b300023a801871382d40582c
4500dd0c1100001e011d007251d01e20
6e285500dd0c1100001e000000fd0038
4b1e5111000a202020202020000000fc
00534d4258323235300a2020202001b1
02031cf14890041f0514131203230907
078301000066030c00100080011d80d0
721c1620102c2580dd0c1100009e011d
8018711c1620582c2500dd0c1100009e
011d00bc52d01e20b8285540dd0c1100
001e8c0ad090204031200c405500dd0c
110000188c0ad08a20e02d10103e9600
dd0c1100001800000000000000000046

Extracted contents:
header:          00 ff ff ff ff ff ff 00
serial number:   4c 2d 1b 07 38 38 39 30 22 14
version:         01 03
basic params:    80 30 1b 78 2a
chroma info:     78 f1 a6 55 48 9b 26 12 50 54
established:     bf ef 80
standard:        71 4f 81 00 81 40 81 80 95 00 95 0f a9 40 b3 00
descriptor 1:    02 3a 80 18 71 38 2d 40 58 2c 45 00 dd 0c 11 00 00 1e
descriptor 2:    01 1d 00 72 51 d0 1e 20 6e 28 55 00 dd 0c 11 00 00 1e
descriptor 3:    00 00 00 fd 00 38 4b 1e 51 11 00 0a 20 20 20 20 20 20
descriptor 4:    00 00 00 fc 00 53 4d 42 58 32 32 35 30 0a 20 20 20 20
extensions:      01
checksum:        b1

Manufacturer: SAM Model 71b Serial Number --
Made week 34 of 2010
EDID version: 1.3
Digital display
Maximum image size: 48 cm x 27 cm
Gamma: 2.20
DPMS levels: Off
Supported color formats: RGB 4:4:4, YCrCb 4:2:2
First detailed timing is preferred timing
Established timings supported:
  720x400@70Hz
  640x480@60Hz
  640x480@67Hz
  640x480@72Hz
  640x480@75Hz
  800x600@56Hz
  800x600@60Hz
  800x600@72Hz
  800x600@75Hz
  832x624@75Hz
  1024x768@60Hz
  1024x768@70Hz
  1024x768@75Hz
  1280x1024@75Hz
  1152x870@75Hz
Standard timings supported:
  1152x864@75Hz
  1280x800@60Hz
  1280x960@60Hz
  1280x1024@60Hz
  1440x900@60Hz
  1440x900@75Hz
  1600x1200@60Hz
  1680x1050@60Hz
Detailed mode: Clock 148.500 MHz, 477 mm x 268 mm
               1920 2008 2052 2200 hborder 0
               1080 1084 1089 1125 vborder 0
               +hsync +vsync 
Detailed mode: Clock 74.250 MHz, 477 mm x 268 mm
               1280 1390 1430 1650 hborder 0
                720  725  730  750 vborder 0
               +hsync +vsync 
Monitor ranges (GTF): 56-75Hz V, 30-81kHz H, max dotclock 170MHz
Monitor name: SMBX2250
Has 1 extension blocks
Checksum: 0xb1 (valid)

CEA extension block
Extension version: 3
24 bytes of CEA data
  Video data block
    VIC 16 1920x1080@60Hz (native)
    VIC 04 1280x720@60Hz 
    VIC 31 1920x1080@50Hz 
    VIC 05 1920x1080i@60Hz 
    VIC 20 1920x1080i@50Hz 
    VIC 19 1280x720@50Hz 
    VIC 18 720x576@50Hz 
    VIC 03 720x480@60Hz 
  Audio data block
    Linear PCM, max channels 1
    Supported sample rates (kHz): 48 44.1 32
    Supported sample sizes (bits): 24 20 16
  Speaker allocation data block
  Vendor-specific data block, OUI 000c03 (HDMI)
    Source physical address 1.0.0.0
    Supports_AI
Underscans PC formats by default
Basic audio support
Supports YCbCr 4:4:4
Supports YCbCr 4:2:2
1 native detailed modes
Detailed mode: Clock 74.250 MHz, 477 mm x 268 mm
               1920 2448 2492 2640 hborder 0
                540  542  547  562 vborder 0
               +hsync +vsync interlaced 
Detailed mode: Clock 74.250 MHz, 477 mm x 268 mm
               1920 2008 2052 2200 hborder 0
                540  542  547  562 vborder 0
               +hsync +vsync interlaced 
Detailed mode: Clock 74.250 MHz, 477 mm x 268 mm
               1280 1720 1760 1980 hborder 0
                720  725  730  750 vborder 0
               +hsync +vsync 
Detailed mode: Clock 27.000 MHz, 477 mm x 268 mm
                720  732  796  864 hborder 0
                576  581  586  625 vborder 0
               -hsync -vsync 
Detailed mode: Clock 27.000 MHz, 477 mm x 268 mm
                720  736  798  858 hborder 0
                480  489  495  525 vborder 0
               -hsync -vsync 
Checksum: 0x46 (valid)
