
EDID (hex):
00ffffffffffff000daed51500000000
261901049522137802ecd58d52539529
22505400000001010101010101010101
010101010101b43b804a713834402c1c
240058c110000018000000fe004e3135
364847412d4541420a20000000fe0043
4d4e0a202020202020202020000000fe
004e3135364847412d4541420a20001b

Extracted contents:
header:          00 ff ff ff ff ff ff 00
serial number:   0d ae d5 15 00 00 00 00 26 19
version:         01 04
basic params:    95 22 13 78 02
chroma info:     ec d5 8d 52 53 95 29 22 50 54
established:     00 00 00
standard:        01 01 01 01 01 01 01 01 01 01 01 01 01 01 01 01
descriptor 1:    b4 3b 80 4a 71 38 34 40 2c 1c 24 00 58 c1 10 00 00 18
descriptor 2:    00 00 00 fe 00 4e 31 35 36 48 47 41 2d 45 41 42 0a 20
descriptor 3:    00 00 00 fe 00 43 4d 4e 0a 20 20 20 20 20 20 20 20 20
descriptor 4:    00 00 00 fe 00 4e 31 35 36 48 47 41 2d 45 41 42 0a 20
extensions:      00
checksum:        1b

Manufacturer: CMN Model 15d5 Serial Number --
Made week 38 of 2015
EDID version: 1.4
Digital display
6 bits per primary color channel
DisplayPort interface
Maximum image size: 34 cm x 19 cm
Gamma: 2.20
Supported color formats: RGB 4:4:4
First detailed timing is preferred timing
Established timings supported:
Standard timings supported:
Detailed mode: Clock 152.840 MHz, 344 mm x 193 mm
               1920 1964 1992 2250 hborder 0
               1080 1082 1086 1132 vborder 0
               -hsync -vsync 
ASCII string: N156HGA
ASCII string: CMN
ASCII string: N156HGA
Checksum: 0x1b (valid)
EDID block does NOT conform to EDID 1.3!
	Missing name descriptor
	Missing monitor ranges
	Detailed block string not properly terminated
