
EDID (hex):
00ffffffffffff0006afed3400000000
001601049522137802d1159e59539b27
1e505400000001010101010101010101
010101010101b03680b470381e403064
310058c1100000180000000f00000000
00000000000000000020000000fe0041
554f0a202020202020202020000000fe
004231353648544e30332e34200a00f6

Extracted contents:
header:          00 ff ff ff ff ff ff 00
serial number:   06 af ed 34 00 00 00 00 00 16
version:         01 04
basic params:    95 22 13 78 02
chroma info:     d1 15 9e 59 53 9b 27 1e 50 54
established:     00 00 00
standard:        01 01 01 01 01 01 01 01 01 01 01 01 01 01 01 01
descriptor 1:    b0 36 80 b4 70 38 1e 40 30 64 31 00 58 c1 10 00 00 18
descriptor 2:    00 00 00 0f 00 00 00 00 00 00 00 00 00 00 00 00 00 20
descriptor 3:    00 00 00 fe 00 41 55 4f 0a 20 20 20 20 20 20 20 20 20
descriptor 4:    00 00 00 fe 00 42 31 35 36 48 54 4e 30 33 2e 34 20 0a
extensions:      00
checksum:        f6

Manufacturer: AUO Model 34ed Serial Number --
Made week 0 of 2012
EDID version: 1.4
Digital display
6 bits per primary color channel
DisplayPort interface
Maximum image size: 34 cm x 19 cm
Gamma: 2.20
Supported color formats: RGB 4:4:4
First detailed timing is preferred timing
Established timings supported:
Standard timings supported:
Detailed mode: Clock 140.000 MHz, 344 mm x 193 mm
               1920 1968 2068 2100 hborder 0
               1080 1083 1084 1110 vborder 0
               -hsync -vsync 
Manufacturer-specified data, tag 15
ASCII string: AUO
ASCII string: B156HTN03
Checksum: 0xf6 (valid)
EDID block does NOT conform to EDID 1.3!
	Missing name descriptor
	Missing monitor ranges
	Detailed block string not properly terminated
