
EDID (hex):
00ffffffffffff0030e4860300000000
00160104901f11780aa9259658578e28
1f505400000001010101010101010101
010101010101d81d56f4500016302430
350035ae1000001be51356f450001630
2430350035ae1000001b000000000000
00000000000000000000000000000002
000c47ff0a3c64121c296400000000dc

edid-decode (hex):

00 ff ff ff ff ff ff 00 30 e4 86 03 00 00 00 00
00 16 01 04 90 1f 11 78 0a a9 25 96 58 57 8e 28
1f 50 54 00 00 00 01 01 01 01 01 01 01 01 01 01
01 01 01 01 01 01 d8 1d 56 f4 50 00 16 30 24 30
35 00 35 ae 10 00 00 1b e5 13 56 f4 50 00 16 30
24 30 35 00 35 ae 10 00 00 1b 00 00 00 00 00 00
00 00 00 00 00 00 00 00 00 00 00 00 00 00 00 02
00 0c 47 ff 0a 3c 64 12 1c 29 64 00 00 00 00 dc

----------------

Block 0, Base EDID:
  EDID Structure Version & Revision: 1.4
  Vendor & Product Identification:
    Manufacturer: LGD
    Model: 902
    Made in: 2012
  Basic Display Parameters & Features:
    Digital display
    Bits per primary color channel: 6
    Digital interface is not defined
    Maximum image size: 31 cm x 17 cm
    Gamma: 2.20
    Supported color formats: RGB 4:4:4, YCrCb 4:4:4
    First detailed timing includes the native pixel format and preferred refresh rate
  Color Characteristics:
    Red  : 0.5878, 0.3457
    Green: 0.3417, 0.5556
    Blue : 0.1562, 0.1230
    White: 0.3134, 0.3291
  Established Timings I & II: none
  Standard Timings: none
  Detailed Timing Descriptors:
    DTD 1:  1366x768    60.067615 Hz 683:384   47.453 kHz     76.400000 MHz (309 mm x 174 mm)
                 Hfront   36 Hsync  48 Hback  160 Hpol P
                 Vfront    3 Vsync   5 Vback   14 Vpol N
    DTD 2:  1366x768    40.042456 Hz 683:384   31.634 kHz     50.930000 MHz (309 mm x 174 mm)
                 Hfront   36 Hsync  48 Hback  160 Hpol P
                 Vfront    3 Vsync   5 Vback   14 Vpol N
    Empty Descriptor
    Manufacturer-Specified Display Descriptor (0x02): 00 02 00 0c 47 ff 0a 3c 64 12 1c 29 64 00 00 00 '....G..<d..)d...'
Checksum: 0xdc
