
EDID (hex):
00ffffffffffff004ca34e5500000000
0012010380160d780a859599574f8f26
21505400000001010101010101010101
010101010101f8160094415856201888
3600df7d000000190000000f00000000
00000000001eb4027400000000fe0053
414d53554e470a2020202020000000fe
003130314e5430322d4130340a2000ad

edid-decode (hex):

00 ff ff ff ff ff ff 00 4c a3 4e 55 00 00 00 00
00 12 01 03 80 16 0d 78 0a 85 95 99 57 4f 8f 26
21 50 54 00 00 00 01 01 01 01 01 01 01 01 01 01
01 01 01 01 01 01 f8 16 00 94 41 58 56 20 18 88
36 00 df 7d 00 00 00 19 00 00 00 0f 00 00 00 00
00 00 00 00 00 1e b4 02 74 00 00 00 00 fe 00 53
41 4d 53 55 4e 47 0a 20 20 20 20 20 00 00 00 fe
00 31 30 31 4e 54 30 32 2d 41 30 34 0a 20 00 ad

----------------

Block 0, Base EDID:
  EDID Structure Version & Revision: 1.3
  Vendor & Product Identification:
    Manufacturer: SEC
    Model: 21838
    Made in: 2008
  Basic Display Parameters & Features:
    Digital display
    Maximum image size: 22 cm x 13 cm
    Gamma: 2.20
    RGB color display
    First detailed timing is the preferred timing
  Color Characteristics:
    Red  : 0.5996, 0.3398
    Green: 0.3095, 0.5595
    Blue : 0.1503, 0.1298
    White: 0.3134, 0.3291
  Established Timings I & II: none
  Standard Timings: none
  Detailed Timing Descriptors:
    DTD 1:  1024x600    60.024010 Hz 128:75    41.176 kHz     58.800000 MHz (223 mm x 125 mm)
                 Hfront   24 Hsync 136 Hback  244 Hpol N
                 Vfront    3 Vsync   6 Vback   77 Vpol N
    Manufacturer-Specified Display Descriptor (0x0f): 00 0f 00 00 00 00 00 00 00 00 00 1e b4 02 74 00 '..............t.'
    Alphanumeric Data String: 'SAMSUNG'
    Alphanumeric Data String: '101NT02-A04'
Checksum: 0xad
