
EDID (hex):
00ffffffffffff000469f62764950300
27170103803c22782aeed5a555489b26
125054bfef00714f81c0814081809500
950fb300d1c0023a801871382d40582c
450056502100001e000000ff0044394c
4d54463233343835320a000000fd0032
55185c11000a202020202020000000fc
00415355532056453237380a2020001a

Extracted contents:
header:          00 ff ff ff ff ff ff 00
serial number:   04 69 f6 27 64 95 03 00 27 17
version:         01 03
basic params:    80 3c 22 78 2a
chroma info:     ee d5 a5 55 48 9b 26 12 50 54
established:     bf ef 00
standard:        71 4f 81 c0 81 40 81 80 95 00 95 0f b3 00 d1 c0
descriptor 1:    02 3a 80 18 71 38 2d 40 58 2c 45 00 56 50 21 00 00 1e
descriptor 2:    00 00 00 ff 00 44 39 4c 4d 54 46 32 33 34 38 35 32 0a
descriptor 3:    00 00 00 fd 00 32 55 18 5c 11 00 0a 20 20 20 20 20 20
descriptor 4:    00 00 00 fc 00 41 53 55 53 20 56 45 32 37 38 0a 20 20
extensions:      00
checksum:        1a

Manufacturer: ACI Model 27f6 Serial Number --
Made week 39 of 2013
EDID version: 1.3
Digital display
Maximum image size: 60 cm x 34 cm
Gamma: 2.20
DPMS levels: Off
Supported color formats: RGB 4:4:4, YCrCb 4:2:2
First detailed timing is preferred timing
Established timings supported:
  720x400@70Hz
  640x480@60Hz
  640x480@67Hz
  640x480@72Hz
  640x480@75Hz
  800x600@56Hz
  800x600@60Hz
  800x600@72Hz
  800x600@75Hz
  832x624@75Hz
  1024x768@60Hz
  1024x768@70Hz
  1024x768@75Hz
  1280x1024@75Hz
Standard timings supported:
  1152x864@75Hz
  1280x720@60Hz
  1280x960@60Hz
  1280x1024@60Hz
  1440x900@60Hz
  1440x900@75Hz
  1680x1050@60Hz
  1920x1080@60Hz
Detailed mode: Clock 148.500 MHz, 598 mm x 336 mm
               1920 2008 2052 2200 hborder 0
               1080 1084 1089 1125 vborder 0
               +hsync +vsync 
Serial number: --
Monitor ranges (GTF): 50-85Hz V, 24-92kHz H, max dotclock 170MHz
Monitor name: ASUS
Checksum: 0x1a (valid)
EDID block does NOT conform to EDID 1.3!
	Detailed block string not properly terminated


