
EDID (hex):
00ffffffffffff004c2d969500000000
0d1c010380a05a782a51e1a9554da125
0d5054bfef80714f810081c08180a9c0
b300950001011a6800a0f0381f403020
3a00a05a0000001a000000fd00184b1e
8c3c000a202020202020000000fc0043
4a4739530a20202020202020000000ff
004831414b3530303030300a202001b0
701279000003013cc2e60080ff139f00
2f801f009f0533000200090033b70008
ff139f002f801f009f05280002000900
555e0004ff099f002f801f009f052800
020004008103374a9061601f04605d5e
035a2309070783010000e305c0006d03
0c001000b83c20006001020367d85dc4
01788003e60605018b7312e20f06b490

Extracted contents:
header:          00 ff ff ff ff ff ff 00
serial number:   4c 2d 96 95 00 00 00 00 0d 1c
version:         01 03
basic params:    80 a0 5a 78 2a
chroma info:     51 e1 a9 55 4d a1 25 0d 50 54
established:     bf ef 80
standard:        71 4f 81 00 81 c0 81 80 a9 c0 b3 00 95 00 01 01
descriptor 1:    1a 68 00 a0 f0 38 1f 40 30 20 3a 00 a0 5a 00 00 00 1a
descriptor 2:    00 00 00 fd 00 18 4b 1e 8c 3c 00 0a 20 20 20 20 20 20
descriptor 3:    00 00 00 fc 00 43 4a 47 39 53 0a 20 20 20 20 20 20 20
descriptor 4:    00 00 00 ff 00 48 31 41 4b 35 30 30 30 30 30 0a 20 20
extensions:      01
checksum:        b0

Manufacturer: SAM Model 9596 Serial Number --
Made week 13 of 2018
EDID version: 1.3
Digital display
Maximum image size: 160 cm x 90 cm
Gamma: 2.20
DPMS levels: Off
Supported color formats: RGB 4:4:4, YCrCb 4:2:2
First detailed timing is preferred timing
Established timings supported:
  720x400@70Hz
  640x480@60Hz
  640x480@67Hz
  640x480@72Hz
  640x480@75Hz
  800x600@56Hz
  800x600@60Hz
  800x600@72Hz
  800x600@75Hz
  832x624@75Hz
  1024x768@60Hz
  1024x768@70Hz
  1024x768@75Hz
  1280x1024@75Hz
  1152x870@75Hz
Standard timings supported:
  1152x864@75Hz
  1280x800@60Hz
  1280x720@60Hz
  1280x1024@60Hz
  1600x900@60Hz
  1680x1050@60Hz
  1440x900@60Hz
Detailed mode: Clock 266.500 MHz, 160 mm x 90 mm
               3840 3888 3920 4000 hborder 0
               1080 1083 1093 1111 vborder 0
               +hsync -vsync 
Monitor ranges (GTF): 24-75Hz V, 30-140kHz H, max dotclock 600MHz
Monitor name: CJG9S
Serial number: --
Has 1 extension blocks
Checksum: 0xb0 (valid)

Unknown extension block
