
EDID (hex):
00ffffffffffff004ca3583300000000
00110103802115780a87f594574f8c27
27505400000001010101010101010101
010101010101d61b0090502022301030
13004bcf100000190000000f00000000
00000000002387026400000000fe0058
583034370031353458330a20000000fe
00263640476a8fc6ff01010a20200080

edid-decode (hex):

00 ff ff ff ff ff ff 00 4c a3 58 33 00 00 00 00
00 11 01 03 80 21 15 78 0a 87 f5 94 57 4f 8c 27
27 50 54 00 00 00 01 01 01 01 01 01 01 01 01 01
01 01 01 01 01 01 d6 1b 00 90 50 20 22 30 10 30
13 00 4b cf 10 00 00 19 00 00 00 0f 00 00 00 00
00 00 00 00 00 23 87 02 64 00 00 00 00 fe 00 58
58 30 34 37 00 31 35 34 58 33 0a 20 00 00 00 fe
00 26 36 40 47 6a 8f c6 ff 01 01 0a 20 20 00 80

----------------

Block 0, Base EDID:
  EDID Structure Version & Revision: 1.3
  Vendor & Product Identification:
    Manufacturer: SEC
    Model: 13144
    Made in: 2007
  Basic Display Parameters & Features:
    Digital display
    Maximum image size: 33 cm x 21 cm
    Gamma: 2.20
    RGB color display
    First detailed timing is the preferred timing
  Color Characteristics:
    Red  : 0.5800, 0.3398
    Green: 0.3095, 0.5498
    Blue : 0.1552, 0.1552
    White: 0.3134, 0.3291
  Established Timings I & II: none
  Standard Timings: none
  Detailed Timing Descriptors:
    DTD 1:  1280x800    60.002560 Hz  16:10    50.042 kHz     71.260000 MHz (331 mm x 207 mm)
                 Hfront   16 Hsync  48 Hback   80 Hpol N
                 Vfront    1 Vsync   3 Vback   30 Vpol N
    Manufacturer-Specified Display Descriptor (0x0f): 00 0f 00 00 00 00 00 00 00 00 00 23 87 02 64 00 '...........#..d.'
    Alphanumeric Data String: 'XX047'
    Alphanumeric Data String: '&6@Gj'
Checksum: 0x80
