
EDID (hex):
00ffffffffffff003684010000000000
00110101801e13780acfc097594e9127
21505400000001010101010101010101
010101010101bc1b00a0502017303020
36002fbe100000180000000f00000000
00000000000000000001000000fe004d
494e4454454348000000000a000000fe
004d3134314e5757313030312020009f

edid-decode (hex):

00 ff ff ff ff ff ff 00 36 84 01 00 00 00 00 00
00 11 01 01 80 1e 13 78 0a cf c0 97 59 4e 91 27
21 50 54 00 00 00 01 01 01 01 01 01 01 01 01 01
01 01 01 01 01 01 bc 1b 00 a0 50 20 17 30 30 20
36 00 2f be 10 00 00 18 00 00 00 0f 00 00 00 00
00 00 00 00 00 00 00 00 00 01 00 00 00 fe 00 4d
49 4e 44 54 45 43 48 00 00 00 00 0a 00 00 00 fe
00 4d 31 34 31 4e 57 57 31 30 30 31 20 20 00 9f

----------------

Block 0, Base EDID:
  EDID Structure Version & Revision: 1.1
  Vendor & Product Identification:
    Manufacturer: MTD
    Model: 1
    Made in: 2007
  Basic Display Parameters & Features:
    Digital display
    Maximum image size: 30 cm x 19 cm
    Gamma: 2.20
    RGB color display
    First detailed timing is the preferred timing
  Color Characteristics:
    Red  : 0.5927, 0.3476
    Green: 0.3076, 0.5693
    Blue : 0.1552, 0.1289
    White: 0.3125, 0.3281
  Established Timings I & II: none
  Standard Timings: none
  Detailed Timing Descriptors:
    DTD 1:  1280x800    59.909545 Hz  16:10    49.306 kHz     71.000000 MHz (303 mm x 190 mm)
                 Hfront   48 Hsync  32 Hback   80 Hpol N
                 Vfront    3 Vsync   6 Vback   14 Vpol N
    Manufacturer-Specified Display Descriptor (0x0f): 00 0f 00 00 00 00 00 00 00 00 00 00 00 00 00 01 '................'
    Alphanumeric Data String: 'MINDTECH'
    Alphanumeric Data String: 'M141NWW1001  '
Checksum: 0x9f
