
EDID (hex):
00ffffffffffff004d10af1400000000
331c0104a51d12780ede50a3544c9926
0f505400000001010101010101010101
010101010101283c80a070b023403020
360020b410000018203080a070b02340
3020360020b410000018000000fe0039
47345831804c513133344e3100000000
0002410332011200000a010a202000f8

edid-decode (hex):

00 ff ff ff ff ff ff 00 4d 10 af 14 00 00 00 00
33 1c 01 04 a5 1d 12 78 0e de 50 a3 54 4c 99 26
0f 50 54 00 00 00 01 01 01 01 01 01 01 01 01 01
01 01 01 01 01 01 28 3c 80 a0 70 b0 23 40 30 20
36 00 20 b4 10 00 00 18 20 30 80 a0 70 b0 23 40
30 20 36 00 20 b4 10 00 00 18 00 00 00 fe 00 39
47 34 58 31 80 4c 51 31 33 34 4e 31 00 00 00 00
00 02 41 03 32 01 12 00 00 0a 01 0a 20 20 00 f8

----------------

Block 0, Base EDID:
  EDID Structure Version & Revision: 1.4
  Vendor & Product Identification:
    Manufacturer: SHP
    Model: 5295
    Made in: week 51 of 2018
  Basic Display Parameters & Features:
    Digital display
    Bits per primary color channel: 8
    DisplayPort interface
    Maximum image size: 29 cm x 18 cm
    Gamma: 2.20
    Supported color formats: RGB 4:4:4, YCrCb 4:4:4
    Default (sRGB) color space is primary color space
    First detailed timing includes the native pixel format and preferred refresh rate
  Color Characteristics:
    Red  : 0.6396, 0.3291
    Green: 0.2998, 0.5996
    Blue : 0.1494, 0.0595
    White: 0.3125, 0.3281
  Established Timings I & II: none
  Standard Timings: none
  Detailed Timing Descriptors:
    DTD 1:  1920x1200   59.950171 Hz  16:10    74.038 kHz    154.000000 MHz (288 mm x 180 mm)
                 Hfront   48 Hsync  32 Hback   80 Hpol N
                 Vfront    3 Vsync   6 Vback   26 Vpol N
    DTD 2:  1920x1200   47.960137 Hz  16:10    59.231 kHz    123.200000 MHz (288 mm x 180 mm)
                 Hfront   48 Hsync  32 Hback   80 Hpol N
                 Vfront    3 Vsync   6 Vback   26 Vpol N
    Alphanumeric Data String: '9G4X1'
    Manufacturer-Specified Display Descriptor (0x00): 00 00 00 02 41 03 32 01 12 00 00 0a 01 0a 20 20 '....A.2.......  '
Checksum: 0xf8
