
EDID (hex):
00ffffffffffff0030e4260200000000
00130103802615780aa8c09d58509a26
1c505400000001010101010101010101
0101010101012f2640b860840c303030
23007ed7100000190000000000000000
00000000000000000000000000fe0000
00004c47446973706c61790a000000fe
004c503137335744312d544c43320017

edid-decode (hex):

00 ff ff ff ff ff ff 00 30 e4 26 02 00 00 00 00
00 13 01 03 80 26 15 78 0a a8 c0 9d 58 50 9a 26
1c 50 54 00 00 00 01 01 01 01 01 01 01 01 01 01
01 01 01 01 01 01 2f 26 40 b8 60 84 0c 30 30 30
23 00 7e d7 10 00 00 19 00 00 00 00 00 00 00 00
00 00 00 00 00 00 00 00 00 00 00 00 00 fe 00 00
00 00 4c 47 44 69 73 70 6c 61 79 0a 00 00 00 fe
00 4c 50 31 37 33 57 44 31 2d 54 4c 43 32 00 17

----------------

Block 0, Base EDID:
  EDID Structure Version & Revision: 1.3
  Vendor & Product Identification:
    Manufacturer: LGD
    Model: 550
    Made in: 2009
  Basic Display Parameters & Features:
    Digital display
    Maximum image size: 38 cm x 21 cm
    Gamma: 2.20
    RGB color display
    First detailed timing is the preferred timing
  Color Characteristics:
    Red  : 0.6152, 0.3457
    Green: 0.3144, 0.6015
    Blue : 0.1513, 0.1093
    White: 0.3125, 0.3281
  Established Timings I & II: none
  Standard Timings: none
  Detailed Timing Descriptors:
    DTD 1:  1600x900    60.079606 Hz  16:9     54.793 kHz     97.750000 MHz (382 mm x 215 mm)
                 Hfront   48 Hsync  48 Hback   88 Hpol N
                 Vfront    2 Vsync   3 Vback    7 Vpol N
    Empty Descriptor
    Alphanumeric Data String: ''
    Alphanumeric Data String: 'LP173WD1-TLC2'
Checksum: 0x17
