
EDID (hex):
00ffffffffffff0009e5710600000000
011a0104952213780a24109759548e27
1e505400000001010101010101010101
010101010101641b5677500013303020
360058c21000001aa21756b950002d30
3020360058c21000001a000000fe004e
43483635804e5431354e333200000000
00004101940110000009010a20200096

Extracted contents:
header:          00 ff ff ff ff ff ff 00
serial number:   09 e5 71 06 00 00 00 00 01 1a
version:         01 04
basic params:    95 22 13 78 0a
chroma info:     24 10 97 59 54 8e 27 1e 50 54
established:     00 00 00
standard:        01 01 01 01 01 01 01 01 01 01 01 01 01 01 01 01
descriptor 1:    64 1b 56 77 50 00 13 30 30 20 36 00 58 c2 10 00 00 1a
descriptor 2:    a2 17 56 b9 50 00 2d 30 30 20 36 00 58 c2 10 00 00 1a
descriptor 3:    00 00 00 fe 00 4e 43 48 36 35 80 4e 54 31 35 4e 33 32
descriptor 4:    00 00 00 00 00 00 41 01 94 01 10 00 00 09 01 0a 20 20
extensions:      00
checksum:        96

Manufacturer: BOE Model 671 Serial Number --
Made week 1 of 2016
EDID version: 1.4
Digital display
6 bits per primary color channel
DisplayPort interface
Maximum image size: 34 cm x 19 cm
Gamma: 2.20
Supported color formats: RGB 4:4:4, YCrCb 4:2:2
First detailed timing is preferred timing
Established timings supported:
Standard timings supported:
Detailed mode: Clock 70.120 MHz, 344 mm x 194 mm
               1366 1414 1446 1485 hborder 0
                768  771  777  787 vborder 0
               +hsync -vsync 
Detailed mode: Clock 60.500 MHz, 344 mm x 194 mm
               1366 1414 1446 1551 hborder 0
                768  771  777  813 vborder 0
               +hsync -vsync 
ASCII string: NCH65
Manufacturer-specified data, tag 0
Checksum: 0x96 (valid)
EDID block does NOT conform to EDID 1.3!
	Missing name descriptor
	Missing monitor ranges
	Detailed block string not properly terminated
