
EDID (hex):
00ffffffffffff000dae811400000000
1e160104901f117802c6759758538f27
24505400000001010101010101010101
010101010101c33640ae62847a30ce89
bf0035ae1000001a822440ae62847a30
ce89bf0035ae1000001a000000fe0039
52354b34803134304647450a00000000
000041319e0010000002010a202000bc

edid-decode (hex):

00 ff ff ff ff ff ff 00 0d ae 81 14 00 00 00 00
1e 16 01 04 90 1f 11 78 02 c6 75 97 58 53 8f 27
24 50 54 00 00 00 01 01 01 01 01 01 01 01 01 01
01 01 01 01 01 01 c3 36 40 ae 62 84 7a 30 ce 89
bf 00 35 ae 10 00 00 1a 82 24 40 ae 62 84 7a 30
ce 89 bf 00 35 ae 10 00 00 1a 00 00 00 fe 00 39
52 35 4b 34 80 31 34 30 46 47 45 0a 00 00 00 00
00 00 41 31 9e 00 10 00 00 02 01 0a 20 20 00 bc

----------------

Block 0, Base EDID:
  EDID Structure Version & Revision: 1.4
  Vendor & Product Identification:
    Manufacturer: CMN
    Model: 5249
    Made in: week 30 of 2012
  Basic Display Parameters & Features:
    Digital display
    Bits per primary color channel: 6
    Digital interface is not defined
    Maximum image size: 31 cm x 17 cm
    Gamma: 2.20
    Supported color formats: RGB 4:4:4
    First detailed timing includes the native pixel format and preferred refresh rate
  Color Characteristics:
    Red  : 0.5927, 0.3437
    Green: 0.3251, 0.5605
    Blue : 0.1533, 0.1435
    White: 0.3134, 0.3291
  Established Timings I & II: none
  Standard Timings: none
  Detailed Timing Descriptors:
    DTD 1:  1600x900    60.005342 Hz  16:9     61.325 kHz    140.190000 MHz (309 mm x 174 mm)
                 Hfront  206 Hsync 137 Hback  343 Hpol P
                 Vfront   11 Vsync  15 Vback   96 Vpol N
    DTD 2:  1600x900    40.003561 Hz  16:9     40.884 kHz     93.460000 MHz (309 mm x 174 mm)
                 Hfront  206 Hsync 137 Hback  343 Hpol P
                 Vfront   11 Vsync  15 Vback   96 Vpol N
    Alphanumeric Data String: '9R5K4'
    Manufacturer-Specified Display Descriptor (0x00): 00 00 00 00 41 31 9e 00 10 00 00 02 01 0a 20 20 '....A1........  '
Checksum: 0xbc
