
EDID (hex):
00ffffffffffff0034a9a29600000000
ff190104a526157802b651a85242ac27
09505400000001010101010101010101
010101010101c3d100baf0703f80a208
88007ed71000001ec3d100baf0703f80
a20888007ed71000001e000000fd003a
3e818a38010a202020202020000000fe
005656583137503035314a30300a00dc

edid-decode (hex):

00 ff ff ff ff ff ff 00 34 a9 a2 96 00 00 00 00
ff 19 01 04 a5 26 15 78 02 b6 51 a8 52 42 ac 27
09 50 54 00 00 00 01 01 01 01 01 01 01 01 01 01
01 01 01 01 01 01 c3 d1 00 ba f0 70 3f 80 a2 08
88 00 7e d7 10 00 00 1e c3 d1 00 ba f0 70 3f 80
a2 08 88 00 7e d7 10 00 00 1e 00 00 00 fd 00 3a
3e 81 8a 38 01 0a 20 20 20 20 20 20 00 00 00 fe
00 56 56 58 31 37 50 30 35 31 4a 30 30 0a 00 dc

----------------

Block 0, Base EDID:
  EDID Structure Version & Revision: 1.4
  Vendor & Product Identification:
    Manufacturer: MEI
    Model: 38562
    Model year: 2015
  Basic Display Parameters & Features:
    Digital display
    Bits per primary color channel: 8
    DisplayPort interface
    Maximum image size: 38 cm x 21 cm
    Gamma: 2.20
    Supported color formats: RGB 4:4:4
    First detailed timing includes the native pixel format and preferred refresh rate
  Color Characteristics:
    Red  : 0.6582, 0.3232
    Green: 0.2587, 0.6738
    Blue : 0.1533, 0.0361
    White: 0.3125, 0.3291
  Established Timings I & II: none
  Standard Timings: none
  Detailed Timing Descriptors:
    DTD 1:  3840x2160   60.000237 Hz  16:9    133.381 kHz    536.990000 MHz (382 mm x 215 mm)
                 Hfront  162 Hsync   8 Hback   16 Hpol P
                 Vfront    8 Vsync   8 Vback   47 Vpol P
    DTD 2:  3840x2160   60.000237 Hz  16:9    133.381 kHz    536.990000 MHz (382 mm x 215 mm)
                 Hfront  162 Hsync   8 Hback   16 Hpol P
                 Vfront    8 Vsync   8 Vback   47 Vpol P
    Display Range Limits:
      Monitor ranges (Bare Limits): 58-62 Hz V, 129-138 kHz H, max dotclock 560 MHz
    Alphanumeric Data String: 'VVX17P051J00'
Checksum: 0xdc
