
EDID (hex):
00ffffffffffff000469f2192a0a0000
3119010308291778eaf545a455509e27
0f5054bdee0081c00101010101010101
010101010101662156aa51001e30468f
33009ae61000001e000000fd00324b18
5311000a202020202020000000fc0041
5355532056533139370a2020000000ff
0046434c4d54463030323630320a00f6

Extracted contents:
header:          00 ff ff ff ff ff ff 00
serial number:   04 69 f2 19 2a 0a 00 00 31 19
version:         01 03
basic params:    08 29 17 78 ea
chroma info:     f5 45 a4 55 50 9e 27 0f 50 54
established:     bd ee 00
standard:        81 c0 01 01 01 01 01 01 01 01 01 01 01 01 01 01
descriptor 1:    66 21 56 aa 51 00 1e 30 46 8f 33 00 9a e6 10 00 00 1e
descriptor 2:    00 00 00 fd 00 32 4b 18 53 11 00 0a 20 20 20 20 20 20
descriptor 3:    00 00 00 fc 00 41 53 55 53 20 56 53 31 39 37 0a 20 20
descriptor 4:    00 00 00 ff 00 46 43 4c 4d 54 46 30 30 32 36 30 32 0a
extensions:      00
checksum:        f6

Manufacturer: ACI Model 19f2 Serial Number --
Made week 49 of 2015
EDID version: 1.3
Analog display, Input voltage level: 0.7/0.3 V
Sync: Separate 
Maximum image size: 41 cm x 23 cm
Gamma: 2.20
DPMS levels: Standby Suspend Off
RGB color display
First detailed timing is preferred timing
Established timings supported:
  720x400@70Hz
  640x480@60Hz
  640x480@67Hz
  640x480@72Hz
  640x480@75Hz
  800x600@60Hz
  800x600@72Hz
  800x600@75Hz
  832x624@75Hz
  1024x768@60Hz
  1024x768@70Hz
  1024x768@75Hz
Standard timings supported:
  1280x720@60Hz
Detailed mode: Clock 85.500 MHz, 410 mm x 230 mm
               1366 1436 1579 1792 hborder 0
                768  771  774  798 vborder 0
               +hsync +vsync 
Monitor ranges (GTF): 50-75Hz V, 24-83kHz H, max dotclock 170MHz
Monitor name: ASUS
Serial number: --
Checksum: 0xf6 (valid)
EDID block does NOT conform to EDID 1.3!
	Detailed block string not properly terminated
