
EDID (hex):
00ffffffffffff0006af5d3300000000
01180104a51a0e7802d1159e59539b27
1e505400000001010101010101010101
010101010101f435808470382a403032
42000090100000180000000000000000
00000000000000000000000000fe0041
554f0a202020202020202020000000fe
004231313648414e30332e33200a0053

edid-decode (hex):

00 ff ff ff ff ff ff 00 06 af 5d 33 00 00 00 00
01 18 01 04 a5 1a 0e 78 02 d1 15 9e 59 53 9b 27
1e 50 54 00 00 00 01 01 01 01 01 01 01 01 01 01
01 01 01 01 01 01 f4 35 80 84 70 38 2a 40 30 32
42 00 00 90 10 00 00 18 00 00 00 00 00 00 00 00
00 00 00 00 00 00 00 00 00 00 00 00 00 fe 00 41
55 4f 0a 20 20 20 20 20 20 20 20 20 00 00 00 fe
00 42 31 31 36 48 41 4e 30 33 2e 33 20 0a 00 53

----------------

Block 0, Base EDID:
  EDID Structure Version & Revision: 1.4
  Vendor & Product Identification:
    Manufacturer: AUO
    Model: 13149
    Made in: week 1 of 2014
  Basic Display Parameters & Features:
    Digital display
    Bits per primary color channel: 8
    DisplayPort interface
    Maximum image size: 26 cm x 14 cm
    Gamma: 2.20
    Supported color formats: RGB 4:4:4
    First detailed timing includes the native pixel format and preferred refresh rate
  Color Characteristics:
    Red  : 0.6201, 0.3486
    Green: 0.3242, 0.6064
    Blue : 0.1523, 0.1181
    White: 0.3134, 0.3291
  Established Timings I & II: none
  Standard Timings: none
  Detailed Timing Descriptors:
    DTD 1:  1920x1080   59.991035 Hz  16:9     67.310 kHz    138.120000 MHz (256 mm x 144 mm)
                 Hfront   48 Hsync  50 Hback   34 Hpol N
                 Vfront    4 Vsync   2 Vback   36 Vpol N
    Empty Descriptor
    Alphanumeric Data String: 'AUO'
    Alphanumeric Data String: 'B116HAN03.3 '
Checksum: 0x53
