
EDID (hex):
00ffffffffffff0009e5780800000000
0a1d0104a524147802de50a3544c9926
0f505400000001010101010101010101
010101010101c23680cc703814403020
360063c81000001a0000000000000000
0000000000000000001a000000fe0042
4f452048460a202020202020000000fe
00545631363146484d2d4e48300a0089

edid-decode (hex):

00 ff ff ff ff ff ff 00 09 e5 78 08 00 00 00 00
0a 1d 01 04 a5 24 14 78 02 de 50 a3 54 4c 99 26
0f 50 54 00 00 00 01 01 01 01 01 01 01 01 01 01
01 01 01 01 01 01 c2 36 80 cc 70 38 14 40 30 20
36 00 63 c8 10 00 00 1a 00 00 00 00 00 00 00 00
00 00 00 00 00 00 00 00 00 1a 00 00 00 fe 00 42
4f 45 20 48 46 0a 20 20 20 20 20 20 00 00 00 fe
00 54 56 31 36 31 46 48 4d 2d 4e 48 30 0a 00 89

----------------

Block 0, Base EDID:
  EDID Structure Version & Revision: 1.4
  Vendor & Product Identification:
    Manufacturer: BOE
    Model: 2168
    Made in: week 10 of 2019
  Basic Display Parameters & Features:
    Digital display
    Bits per primary color channel: 8
    DisplayPort interface
    Maximum image size: 36 cm x 20 cm
    Gamma: 2.20
    Supported color formats: RGB 4:4:4
    First detailed timing includes the native pixel format and preferred refresh rate
  Color Characteristics:
    Red  : 0.6396, 0.3291
    Green: 0.2998, 0.5996
    Blue : 0.1494, 0.0595
    White: 0.3125, 0.3281
  Established Timings I & II: none
  Standard Timings: none
  Detailed Timing Descriptors:
    DTD 1:  1920x1080   59.998288 Hz  16:9     65.998 kHz    140.180000 MHz (355 mm x 200 mm)
                 Hfront   48 Hsync  32 Hback  124 Hpol P
                 Vfront    3 Vsync   6 Vback   11 Vpol N
    Manufacturer-Specified Display Descriptor (0x00): 00 00 00 00 00 00 00 00 00 00 00 00 00 00 00 1a '................'
    Alphanumeric Data String: 'BOE HF'
    Alphanumeric Data String: 'TV161FHM-NH0'
Checksum: 0x89
