
EDID (hex):
00ffffffffffff001e6d275701010101
0a130103802f1d780a40f5a357559e26
11505421080081808140714001010101
0101010101017c2e90a0601a1e403020
3600d9281100001a21399030621a2740
68b03600d9281100001c000000fd0030
3d1c530f000a202020202020000000fc
0057323238360a202020202020200148
020321f14e900403011412051f101300
000000230907078301000065030c0010
00023a801871382d40582c4500d92811
00001e011d8018711c1620582c2500d9
281100009e011d007251d01e206e2855
00d9281100001e8c0ad08a20e02d1010
3e9600d9281100001800000000000000
0000000000000000000000000000005a

Extracted contents:
header:          00 ff ff ff ff ff ff 00
serial number:   1e 6d 27 57 01 01 01 01 0a 13
version:         01 03
basic params:    80 2f 1d 78 0a
chroma info:     40 f5 a3 57 55 9e 26 11 50 54
established:     21 08 00
standard:        81 80 81 40 71 40 01 01 01 01 01 01 01 01 01 01
descriptor 1:    7c 2e 90 a0 60 1a 1e 40 30 20 36 00 d9 28 11 00 00 1a
descriptor 2:    21 39 90 30 62 1a 27 40 68 b0 36 00 d9 28 11 00 00 1c
descriptor 3:    00 00 00 fd 00 30 3d 1c 53 0f 00 0a 20 20 20 20 20 20
descriptor 4:    00 00 00 fc 00 57 32 32 38 36 0a 20 20 20 20 20 20 20
extensions:      01
checksum:        48

Manufacturer: GSM Model 5727 Serial Number --
Made week 10 of 2009
EDID version: 1.3
Digital display
Maximum image size: 47 cm x 29 cm
Gamma: 2.20
Supported color formats: RGB 4:4:4, YCrCb 4:2:2
First detailed timing is preferred timing
Established timings supported:
  640x480@60Hz
  800x600@60Hz
  1024x768@60Hz
Standard timings supported:
  1280x1024@60Hz
  1280x960@60Hz
  1152x864@60Hz
Detailed mode: Clock 119.000 MHz, 473 mm x 296 mm
               1680 1728 1760 1840 hborder 0
               1050 1053 1059 1080 vborder 0
               +hsync -vsync 
Detailed mode: Clock 146.250 MHz, 473 mm x 296 mm
               1680 1784 1960 2240 hborder 0
               1050 1053 1059 1089 vborder 0
               -hsync +vsync 
Monitor ranges (GTF): 48-61Hz V, 28-83kHz H, max dotclock 150MHz
Monitor name: W2286
Has 1 extension blocks
Checksum: 0x48 (valid)

CEA extension block
Extension version: 3
29 bytes of CEA data
  Video data block
    VIC 16 1920x1080@60Hz (native)
    VIC 04 1280x720@60Hz 
    VIC 03 720x480@60Hz 
    VIC 01 640x480@60Hz 
    VIC 20 1920x1080i@50Hz 
    VIC 18 720x576@50Hz 
    VIC 05 1920x1080i@60Hz 
    VIC 31 1920x1080@50Hz 
    VIC 16 1920x1080@60Hz 
    VIC 19 1280x720@50Hz 
    VIC 00 Unknown mode 
    VIC 00 Unknown mode 
    VIC 00 Unknown mode 
    VIC 00 Unknown mode 
  Audio data block
    Linear PCM, max channels 1
    Supported sample rates (kHz): 48 44.1 32
    Supported sample sizes (bits): 24 20 16
  Speaker allocation data block
  Vendor-specific data block, OUI 000c03 (HDMI)
    Source physical address 1.0.0.0
Underscans PC formats by default
Basic audio support
Supports YCbCr 4:4:4
Supports YCbCr 4:2:2
1 native detailed modes
Detailed mode: Clock 148.500 MHz, 473 mm x 296 mm
               1920 2008 2052 2200 hborder 0
               1080 1084 1089 1125 vborder 0
               +hsync +vsync 
Detailed mode: Clock 74.250 MHz, 473 mm x 296 mm
               1920 2008 2052 2200 hborder 0
                540  542  547  562 vborder 0
               +hsync +vsync interlaced 
Detailed mode: Clock 74.250 MHz, 473 mm x 296 mm
               1280 1390 1430 1650 hborder 0
                720  725  730  750 vborder 0
               +hsync +vsync 
Detailed mode: Clock 27.000 MHz, 473 mm x 296 mm
                720  736  798  858 hborder 0
                480  489  495  525 vborder 0
               -hsync -vsync 
Checksum: 0x5a (valid)
