
EDID (hex):
00ffffffffffff004c83533800000000
00190104a51a11780bee95a3544c9926
0f505400000001010101010101010101
010101010101d282b0dca02040703020
250004ad10000019000000fd00303c00
0022040a141414141414000000fe0053
414d53554e470a2020202020000000fe
00313233594c30312d3030310a2000fb

edid-decode (hex):

00 ff ff ff ff ff ff 00 4c 83 53 38 00 00 00 00
00 19 01 04 a5 1a 11 78 0b ee 95 a3 54 4c 99 26
0f 50 54 00 00 00 01 01 01 01 01 01 01 01 01 01
01 01 01 01 01 01 d2 82 b0 dc a0 20 40 70 30 20
25 00 04 ad 10 00 00 19 00 00 00 fd 00 30 3c 00
00 22 04 0a 14 14 14 14 14 14 00 00 00 fe 00 53
41 4d 53 55 4e 47 0a 20 20 20 20 20 00 00 00 fe
00 31 32 33 59 4c 30 31 2d 30 30 31 0a 20 00 fb

----------------

Block 0, Base EDID:
  EDID Structure Version & Revision: 1.4
  Vendor & Product Identification:
    Manufacturer: SDC
    Model: 14419
    Made in: 2015
  Basic Display Parameters & Features:
    Digital display
    Bits per primary color channel: 8
    DisplayPort interface
    Maximum image size: 26 cm x 17 cm
    Gamma: 2.20
    Supported color formats: RGB 4:4:4, YCrCb 4:4:4
    First detailed timing includes the native pixel format and preferred refresh rate
    Display is continuous frequency
  Color Characteristics:
    Red  : 0.6396, 0.3300
    Green: 0.2998, 0.5996
    Blue : 0.1503, 0.0595
    White: 0.3134, 0.3291
  Established Timings I & II: none
  Standard Timings: none
  Detailed Timing Descriptors:
    DTD 1:  2736x1824   60.007941 Hz   3:2    113.295 kHz    334.900000 MHz (260 mm x 173 mm)
                 Hfront   48 Hsync  32 Hback  140 Hpol N
                 Vfront    2 Vsync   5 Vback   57 Vpol N
    Display Range Limits:
      Monitor ranges (CVT): 48-60 Hz V, 0-0 kHz H, max dotclock 340 MHz
      CVT version 0.10
      Real max dotclock: 338.75 MHz
      Max active pixels per line: 160
      Supported aspect ratios: 5:4
      Preferred aspect ratio: 4:3
      Supports CVT reduced blanking
      Supported display scaling:
        Vertical stretch
      Preferred vertical refresh: 20 Hz
    Alphanumeric Data String: 'SAMSUNG'
    Alphanumeric Data String: '123YL01-001'
Checksum: 0xfb
