
EDID (hex):
00ffffffffffff000df2db1700000000
0e200104951d10780a129593575a9029
1e505400000001010101010101010101
010101010101322640a060841a303020
350025a410000018322640a060841a30
3020350025a410000018000000fe0043
50542020202020202020202000000000
004e4c4141313333554130324120003f

Extracted contents:
header:          00 ff ff ff ff ff ff 00
serial number:   0d f2 db 17 00 00 00 00 0e 20
version:         01 04
basic params:    95 1d 10 78 0a
chroma info:     12 95 93 57 5a 90 29 1e 50 54
established:     00 00 00
standard:        01 01 01 01 01 01 01 01 01 01 01 01 01 01 01 01
descriptor 1:    32 26 40 a0 60 84 1a 30 30 20 35 00 25 a4 10 00 00 18
descriptor 2:    32 26 40 a0 60 84 1a 30 30 20 35 00 25 a4 10 00 00 18
descriptor 3:    00 00 00 fe 00 43 50 54 20 20 20 20 20 20 20 20 20 20
descriptor 4:    00 00 00 00 00 4e 4c 41 41 31 33 33 55 41 30 32 41 20
extensions:      00
checksum:        3f

EDID version: 1.4
Manufacturer: COR Model 17db Serial Number --
Made in week 14 of 2022
Digital display
6 bits per primary color channel
DisplayPort interface
Maximum image size: 29 cm x 16 cm
Gamma: 2.20
Supported color formats: RGB 4:4:4, YCrCb 4:4:4
First detailed timing includes the native pixel format and preferred refresh rate
Display x,y Chromaticity:
  Red:   0.5742, 0.3408
  Green: 0.3515, 0.5644
  Blue:  0.1621, 0.1181
  White: 0.3134, 0.3291
Established timings supported:
Standard timings supported:
Detailed mode: Clock 97.780 MHz, 293 mm x 164 mm
               1600 1648 1680 1760 hborder 0
                900  903  908  926 vborder 0
               -hsync -vsync 
               VertFreq: 59 Hz, HorFreq: 55556 Hz
Detailed mode: Clock 97.780 MHz, 293 mm x 164 mm
               1600 1648 1680 1760 hborder 0
                900  903  908  926 vborder 0
               -hsync -vsync 
               VertFreq: 59 Hz, HorFreq: 55556 Hz
ASCII string: CPT          
Manufacturer-specified data, tag 0
Checksum: 0x3f (valid)
EDID block does NOT conform to EDID 1.4!
	Missing name descriptor
	Missing monitor ranges
