
EDID (hex):
00ffffffffffff004c83415400000000
00160104902213780a36259356559329
1d505400000001010101010101010101
010101010101ce1d56f0500018304030
250058c21000001ad81356f050001830
4030250058c21000001a000000fe0037
4a5830508031353641540a2000000000
00004121940010000001010a20200052

edid-decode (hex):

00 ff ff ff ff ff ff 00 4c 83 41 54 00 00 00 00
00 16 01 04 90 22 13 78 0a 36 25 93 56 55 93 29
1d 50 54 00 00 00 01 01 01 01 01 01 01 01 01 01
01 01 01 01 01 01 ce 1d 56 f0 50 00 18 30 40 30
25 00 58 c2 10 00 00 1a d8 13 56 f0 50 00 18 30
40 30 25 00 58 c2 10 00 00 1a 00 00 00 fe 00 37
4a 58 30 50 80 31 35 36 41 54 0a 20 00 00 00 00
00 00 41 21 94 00 10 00 00 01 01 0a 20 20 00 52

----------------

Block 0, Base EDID:
  EDID Structure Version & Revision: 1.4
  Vendor & Product Identification:
    Manufacturer: SDC
    Model: 21569
    Made in: 2012
  Basic Display Parameters & Features:
    Digital display
    Bits per primary color channel: 6
    Digital interface is not defined
    Maximum image size: 34 cm x 19 cm
    Gamma: 2.20
    Supported color formats: RGB 4:4:4, YCrCb 4:4:4
    First detailed timing includes the native pixel format and preferred refresh rate
  Color Characteristics:
    Red  : 0.5742, 0.3388
    Green: 0.3330, 0.5761
    Blue : 0.1601, 0.1152
    White: 0.3134, 0.3291
  Established Timings I & II: none
  Standard Timings: none
  Detailed Timing Descriptors:
    DTD 1:  1366x768    59.986540 Hz 683:384   47.509 kHz     76.300000 MHz (344 mm x 194 mm)
                 Hfront   64 Hsync  48 Hback  128 Hpol P
                 Vfront    2 Vsync   5 Vback   17 Vpol N
    DTD 2:  1366x768    39.938614 Hz 683:384   31.631 kHz     50.800000 MHz (344 mm x 194 mm)
                 Hfront   64 Hsync  48 Hback  128 Hpol P
                 Vfront    2 Vsync   5 Vback   17 Vpol N
    Alphanumeric Data String: '7JX0P'
    Manufacturer-Specified Display Descriptor (0x00): 00 00 00 00 41 21 94 00 10 00 00 01 01 0a 20 20 '....A!........  '
Checksum: 0x52
