
EDID (hex):
00ffffffffffff0030e4166600000000
00140104901c10780a10a59658578f28
20505400000001010101010101010101
010101010101121b567850000e302020
2400159c1000001ac01256a050001630
30203500159c1000001a000000fe004d
59343236803132355748320a00000000
00004131940000000001010a2020008f

edid-decode (hex):

00 ff ff ff ff ff ff 00 30 e4 16 66 00 00 00 00
00 14 01 04 90 1c 10 78 0a 10 a5 96 58 57 8f 28
20 50 54 00 00 00 01 01 01 01 01 01 01 01 01 01
01 01 01 01 01 01 12 1b 56 78 50 00 0e 30 20 20
24 00 15 9c 10 00 00 1a c0 12 56 a0 50 00 16 30
30 20 35 00 15 9c 10 00 00 1a 00 00 00 fe 00 4d
59 34 32 36 80 31 32 35 57 48 32 0a 00 00 00 00
00 00 41 31 94 00 00 00 00 01 01 0a 20 20 00 8f

----------------

Block 0, Base EDID:
  EDID Structure Version & Revision: 1.4
  Vendor & Product Identification:
    Manufacturer: LGD
    Model: 26134
    Made in: 2010
  Basic Display Parameters & Features:
    Digital display
    Bits per primary color channel: 6
    Digital interface is not defined
    Maximum image size: 28 cm x 16 cm
    Gamma: 2.20
    Supported color formats: RGB 4:4:4, YCrCb 4:4:4
    First detailed timing includes the native pixel format and preferred refresh rate
  Color Characteristics:
    Red  : 0.5859, 0.3447
    Green: 0.3398, 0.5585
    Blue : 0.1582, 0.1269
    White: 0.3134, 0.3291
  Established Timings I & II: none
  Standard Timings: none
  Detailed Timing Descriptors:
    DTD 1:  1366x768    59.635885 Hz 683:384   46.635 kHz     69.300000 MHz (277 mm x 156 mm)
                 Hfront   32 Hsync  32 Hback   56 Hpol P
                 Vfront    2 Vsync   4 Vback    8 Vpol N
    DTD 2:  1366x768    39.816182 Hz 683:384   31.455 kHz     48.000000 MHz (277 mm x 156 mm)
                 Hfront   48 Hsync  32 Hback   80 Hpol P
                 Vfront    3 Vsync   5 Vback   14 Vpol N
    Alphanumeric Data String: 'MY426'
    Manufacturer-Specified Display Descriptor (0x00): 00 00 00 00 41 31 94 00 00 00 00 01 01 0a 20 20 '....A1........  '
Checksum: 0x8f
