
EDID (hex):
00ffffffffffff004d10ae1400000000
341c0104a51d11780ede50a3544c9926
0f505400000001010101010101010101
010101010101ac3780a070383e403020
350026a510000018892c80a070383e40
3020350026a510000018000000fe0034
56304859804c513133334d3100000000
0002410328001200000b010a202000d1

edid-decode (hex):

00 ff ff ff ff ff ff 00 4d 10 ae 14 00 00 00 00
34 1c 01 04 a5 1d 11 78 0e de 50 a3 54 4c 99 26
0f 50 54 00 00 00 01 01 01 01 01 01 01 01 01 01
01 01 01 01 01 01 ac 37 80 a0 70 38 3e 40 30 20
35 00 26 a5 10 00 00 18 89 2c 80 a0 70 38 3e 40
30 20 35 00 26 a5 10 00 00 18 00 00 00 fe 00 34
56 30 48 59 80 4c 51 31 33 33 4d 31 00 00 00 00
00 02 41 03 28 00 12 00 00 0b 01 0a 20 20 00 d1

----------------

Block 0, Base EDID:
  EDID Structure Version & Revision: 1.4
  Vendor & Product Identification:
    Manufacturer: SHP
    Model: 5294
    Made in: week 52 of 2018
  Basic Display Parameters & Features:
    Digital display
    Bits per primary color channel: 8
    DisplayPort interface
    Maximum image size: 29 cm x 17 cm
    Gamma: 2.20
    Supported color formats: RGB 4:4:4, YCrCb 4:4:4
    Default (sRGB) color space is primary color space
    First detailed timing includes the native pixel format and preferred refresh rate
  Color Characteristics:
    Red  : 0.6396, 0.3291
    Green: 0.2998, 0.5996
    Blue : 0.1494, 0.0595
    White: 0.3125, 0.3281
  Established Timings I & II: none
  Standard Timings: none
  Detailed Timing Descriptors:
    DTD 1:  1920x1080   59.999326 Hz  16:9     68.519 kHz    142.520000 MHz (294 mm x 165 mm)
                 Hfront   48 Hsync  32 Hback   80 Hpol N
                 Vfront    3 Vsync   5 Vback   54 Vpol N
    DTD 2:  1920x1080   47.996935 Hz  16:9     54.812 kHz    114.010000 MHz (294 mm x 165 mm)
                 Hfront   48 Hsync  32 Hback   80 Hpol N
                 Vfront    3 Vsync   5 Vback   54 Vpol N
    Alphanumeric Data String: '4V0HY'
    Manufacturer-Specified Display Descriptor (0x00): 00 00 00 02 41 03 28 00 12 00 00 0b 01 0a 20 20 '....A.(.......  '
Checksum: 0xd1
