
EDID (hex):
00ffffffffffff004c2d3e0d00060001
011a0103807944780a23ada4544d9926
0f474abdef80714f81c0810081809500
a9c0b300010104740030f2705a80b058
8a00501d7400001e023a801871382d40
582c4500501d7400001e000000fd0018
4b0f511e000a202020202020000000fc
0053414d53554e470a202020202001f3
020340f0535f101f041305142021225d
5e626364071603122309070783010000
e2000fe30503016e030c002000b83c20
008001020304e3060d01e50e60616566
011d80d0721c1620102c2580501d7400
009e662156aa51001e30468f3300501d
7400001e000000000000000000000000
00000000000000000000000000000036

Extracted contents:
header:          00 ff ff ff ff ff ff 00
serial number:   4c 2d 3e 0d 00 06 00 01 01 1a
version:         01 03
basic params:    80 79 44 78 0a
chroma info:     23 ad a4 54 4d 99 26 0f 47 4a
established:     bd ef 80
standard:        71 4f 81 c0 81 00 81 80 95 00 a9 c0 b3 00 01 01
descriptor 1:    04 74 00 30 f2 70 5a 80 b0 58 8a 00 50 1d 74 00 00 1e
descriptor 2:    02 3a 80 18 71 38 2d 40 58 2c 45 00 50 1d 74 00 00 1e
descriptor 3:    00 00 00 fd 00 18 4b 0f 51 1e 00 0a 20 20 20 20 20 20
descriptor 4:    00 00 00 fc 00 53 41 4d 53 55 4e 47 0a 20 20 20 20 20
extensions:      01
checksum:        f3

Manufacturer: SAM Model d3e Serial Number --
Made week 1 of 2016
EDID version: 1.3
Digital display
Maximum image size: 121 cm x 68 cm
Gamma: 2.20
Supported color formats: RGB 4:4:4, YCrCb 4:2:2
First detailed timing is preferred timing
Established timings supported:
  720x400@70Hz
  640x480@60Hz
  640x480@67Hz
  640x480@72Hz
  640x480@75Hz
  800x600@60Hz
  800x600@72Hz
  800x600@75Hz
  832x624@75Hz
  1024x768@60Hz
  1024x768@70Hz
  1024x768@75Hz
  1280x1024@75Hz
  1152x870@75Hz
Standard timings supported:
  1152x864@75Hz
  1280x720@60Hz
  1280x800@60Hz
  1280x1024@60Hz
  1440x900@60Hz
  1600x900@60Hz
  1680x1050@60Hz
Detailed mode: Clock 297.000 MHz, 1872 mm x 1053 mm
               3840 4016 4104 4400 hborder 0
               2160 2168 2178 2250 vborder 0
               +hsync +vsync 
Detailed mode: Clock 148.500 MHz, 1872 mm x 1053 mm
               1920 2008 2052 2200 hborder 0
               1080 1084 1089 1125 vborder 0
               +hsync +vsync 
Monitor ranges (GTF): 24-75Hz V, 15-81kHz H, max dotclock 300MHz
Monitor name: SAMSUNG
Has 1 extension blocks
Checksum: 0xf3 (valid)

CEA extension block
Extension version: 3
60 bytes of CEA data
  Video data block
    VIC 95 Unknown mode 
    VIC 16 1920x1080@60Hz 
    VIC 31 1920x1080@50Hz 
    VIC 04 1280x720@60Hz 
    VIC 19 1280x720@50Hz 
    VIC 05 1920x1080i@60Hz 
    VIC 20 1920x1080i@50Hz 
    VIC 32 1920x1080@24Hz 
    VIC 33 1920x1080@25Hz 
    VIC 34 1920x1080@30Hz 
    VIC 93 Unknown mode 
    VIC 94 Unknown mode 
    VIC 98 Unknown mode 
    VIC 99 Unknown mode 
    VIC 100 Unknown mode 
    VIC 07 1440x480i@60Hz 
    VIC 22 1440x576i@50Hz 
    VIC 03 720x480@60Hz 
    VIC 18 720x576@50Hz 
  Audio data block
    Linear PCM, max channels 1
    Supported sample rates (kHz): 48 44.1 32
    Supported sample sizes (bits): 24 20 16
  Speaker allocation data block
  Extended tag: video capability data block
    YCbCr quantization: No Data (0)
    RGB quantization: No Data (0)
    PT scan behaviour: No Data (0)
    IT scan behaviour: Support both over- and underscan (3)
    CE scan behaviour: Support both over- and underscan (3)
  Extended tag: Colorimetry data block
  Vendor-specific data block, OUI 000c03 (HDMI)
    Source physical address 2.0.0.0
    Supports_AI
    DC_36bit
    DC_30bit
    DC_Y444
    Maximum TMDS clock: 300MHz
    Extended HDMI video details:
      HDMI VIC 0 3840x2160@30Hz
      HDMI VIC 1 3840x2160@25Hz
      HDMI VIC 2 3840x2160@24Hz
      HDMI VIC 3 4096x2160@24Hz
  Extended tag: Reserved video block (06)
  Extended tag: Reserved video block (0e)
Underscans PC formats by default
Basic audio support
Supports YCbCr 4:4:4
Supports YCbCr 4:2:2
0 native detailed modes
Detailed mode: Clock 74.250 MHz, 1872 mm x 1053 mm
               1920 2448 2492 2640 hborder 0
                540  542  547  562 vborder 0
               +hsync +vsync interlaced 
Detailed mode: Clock 85.500 MHz, 1872 mm x 1053 mm
               1366 1436 1579 1792 hborder 0
                768  771  774  798 vborder 0
               +hsync +vsync 
Checksum: 0x36 (valid)
