
EDID (hex):
00ffffffffffff0009e5900600000000
01190104952213780a24109759548e27
1e505400000001010101010101010101
0101010101019c3b8010713850403020
360058c11000001a2e2c80de70381440
6464440558c11000001a000000fe0030
37545644804e5431354e343100000000
0000412196001000000a010a202000bc

Extracted contents:
header:          00 ff ff ff ff ff ff 00
serial number:   09 e5 90 06 00 00 00 00 01 19
version:         01 04
basic params:    95 22 13 78 0a
chroma info:     24 10 97 59 54 8e 27 1e 50 54
established:     00 00 00
standard:        01 01 01 01 01 01 01 01 01 01 01 01 01 01 01 01
descriptor 1:    9c 3b 80 10 71 38 50 40 30 20 36 00 58 c1 10 00 00 1a
descriptor 2:    2e 2c 80 de 70 38 14 40 64 64 44 05 58 c1 10 00 00 1a
descriptor 3:    00 00 00 fe 00 30 37 54 56 44 80 4e 54 31 35 4e 34 31
descriptor 4:    00 00 00 00 00 00 41 21 96 00 10 00 00 0a 01 0a 20 20
extensions:      00
checksum:        bc

Manufacturer: BOE Model 690 Serial Number --
Made week 1 of 2015
EDID version: 1.4
Digital display
6 bits per primary color channel
DisplayPort interface
Maximum image size: 34 cm x 19 cm
Gamma: 2.20
Supported color formats: RGB 4:4:4, YCrCb 4:2:2
First detailed timing is preferred timing
Established timings supported:
Standard timings supported:
Detailed mode: Clock 152.600 MHz, 344 mm x 193 mm
               1920 1968 2000 2192 hborder 0
               1080 1083 1089 1160 vborder 0
               +hsync -vsync 
Detailed mode: Clock 113.100 MHz, 344 mm x 193 mm
               1920 2020 2120 2142 hborder 0
               1080 1100 1120 1100 vborder 0
               +hsync -vsync 
ASCII string: 07TVD
Manufacturer-specified data, tag 0
Checksum: 0xbc (valid)
EDID block does NOT conform to EDID 1.3!
	Missing name descriptor
	Missing monitor ranges
	Detailed block string not properly terminated
