
EDID (hex):
00ffffffffffff000dafa11500000000
35130103802313780a07f59a574e8726
1e505400000001010101010101010101
010101010101121b5664500014301022
260058c110000018000000fe004e3135
3642362d4c30410a2020000000fe0043
4d4f0a202020202020202020000000fe
004e31353642362d4c30410a20200013

edid-decode (hex):

00 ff ff ff ff ff ff 00 0d af a1 15 00 00 00 00
35 13 01 03 80 23 13 78 0a 07 f5 9a 57 4e 87 26
1e 50 54 00 00 00 01 01 01 01 01 01 01 01 01 01
01 01 01 01 01 01 12 1b 56 64 50 00 14 30 10 22
26 00 58 c1 10 00 00 18 00 00 00 fe 00 4e 31 35
36 42 36 2d 4c 30 41 0a 20 20 00 00 00 fe 00 43
4d 4f 0a 20 20 20 20 20 20 20 20 20 00 00 00 fe
00 4e 31 35 36 42 36 2d 4c 30 41 0a 20 20 00 13

----------------

Block 0, Base EDID:
  EDID Structure Version & Revision: 1.3
  Vendor & Product Identification:
    Manufacturer: CMO
    Model: 5537
    Made in: week 53 of 2009
  Basic Display Parameters & Features:
    Digital display
    Maximum image size: 35 cm x 19 cm
    Gamma: 2.20
    RGB color display
    First detailed timing is the preferred timing
  Color Characteristics:
    Red  : 0.6015, 0.3398
    Green: 0.3056, 0.5302
    Blue : 0.1513, 0.1201
    White: 0.3134, 0.3291
  Established Timings I & II: none
  Standard Timings: none
  Detailed Timing Descriptors:
    DTD 1:  1366x768    59.989197 Hz 683:384   47.271 kHz     69.300000 MHz (344 mm x 193 mm)
                 Hfront   16 Hsync  34 Hback   50 Hpol N
                 Vfront    2 Vsync   6 Vback   12 Vpol N
    Alphanumeric Data String: 'N156B6-L0A'
    Alphanumeric Data String: 'CMO'
    Alphanumeric Data String: 'N156B6-L0A'
Checksum: 0x13
